target datalayout = "e-m:e-p270:32:32-p271:32:32-p272:64:64-i64:64-i128:128-f80:128-n8:16:32:64-S128"
target triple = "x86_64-pc-linux-gnu"

%struct.jv = type { i8, i8, i16, i32, %union.anon }
%union.anon = type { ptr }
%struct.block = type { ptr, ptr }

@.str = private unnamed_addr constant [4 x i8] c".jq\00", align 1
@.str.1 = private unnamed_addr constant [5 x i8] c"deps\00", align 1
@.str.2 = private unnamed_addr constant [5 x i8] c"defs\00", align 1

; Function Attrs: nounwind uwtable
define internal i32 @jv_is_valid(i64 %0, ptr %1) #0 {
  %3 = alloca %struct.jv, align 8
  %4 = getelementptr inbounds nuw { i64, ptr }, ptr %3, i32 0, i32 0
  store i64 %0, ptr %4, align 8
  %5 = getelementptr inbounds nuw { i64, ptr }, ptr %3, i32 0, i32 1
  store ptr %1, ptr %5, align 8
  %6 = getelementptr inbounds nuw { i64, ptr }, ptr %3, i32 0, i32 0
  %7 = load i64, ptr %6, align 8
  %8 = getelementptr inbounds nuw { i64, ptr }, ptr %3, i32 0, i32 1
  %9 = load ptr, ptr %8, align 8
  %10 = call i32 @jv_get_kind(i64 %7, ptr %9)
  %11 = icmp ne i32 %10, 0
  %12 = zext i1 %11 to i32
  ret i32 %12
}

; Function Attrs: nounwind uwtable
define dso_local { i64, ptr } @load_module_meta(ptr noundef %0, i64 %1, ptr %2) #0 {
  %4 = alloca %struct.jv, align 8
  %5 = alloca %struct.jv, align 8
  %6 = alloca ptr, align 8
  %7 = alloca %struct.jv, align 8
  %8 = alloca %struct.jv, align 8
  %9 = alloca %struct.jv, align 8
  %10 = alloca %struct.jv, align 8
  %11 = alloca %struct.jv, align 8
  %12 = alloca i32, align 4
  %13 = alloca %struct.jv, align 8
  %14 = alloca %struct.block, align 8
  %15 = alloca ptr, align 8
  %16 = alloca %struct.jv, align 8
  %17 = alloca i32, align 4
  %18 = alloca %struct.jv, align 8
  %19 = alloca %struct.jv, align 8
  %20 = alloca %struct.jv, align 8
  %21 = alloca %struct.jv, align 8
  %22 = alloca %struct.jv, align 8
  %23 = alloca %struct.jv, align 8
  %24 = alloca %struct.jv, align 8
  %25 = alloca %struct.jv, align 8
  %26 = getelementptr inbounds nuw { i64, ptr }, ptr %5, i32 0, i32 0
  store i64 %1, ptr %26, align 8
  %27 = getelementptr inbounds nuw { i64, ptr }, ptr %5, i32 0, i32 1
  store ptr %2, ptr %27, align 8
  store ptr %0, ptr %6, align 8, !tbaa !4
  call void @llvm.lifetime.start.p0(i64 16, ptr %7) #8
  %28 = load ptr, ptr %6, align 8, !tbaa !4
  %29 = getelementptr inbounds nuw { i64, ptr }, ptr %5, i32 0, i32 0
  %30 = load i64, ptr %29, align 8
  %31 = getelementptr inbounds nuw { i64, ptr }, ptr %5, i32 0, i32 1
  %32 = load ptr, ptr %31, align 8
  %33 = call { i64, ptr } @validate_relpath(i64 %30, ptr %32)
  %34 = getelementptr inbounds nuw { i64, ptr }, ptr %8, i32 0, i32 0
  %35 = extractvalue { i64, ptr } %33, 0
  store i64 %35, ptr %34, align 8
  %36 = getelementptr inbounds nuw { i64, ptr }, ptr %8, i32 0, i32 1
  %37 = extractvalue { i64, ptr } %33, 1
  store ptr %37, ptr %36, align 8
  %38 = load ptr, ptr %6, align 8, !tbaa !4
  %39 = call { i64, ptr } @jq_get_lib_dirs(ptr noundef %38)
  %40 = getelementptr inbounds nuw { i64, ptr }, ptr %9, i32 0, i32 0
  %41 = extractvalue { i64, ptr } %39, 0
  store i64 %41, ptr %40, align 8
  %42 = getelementptr inbounds nuw { i64, ptr }, ptr %9, i32 0, i32 1
  %43 = extractvalue { i64, ptr } %39, 1
  store ptr %43, ptr %42, align 8
  %44 = load ptr, ptr %6, align 8, !tbaa !4
  %45 = call { i64, ptr } @jq_get_jq_origin(ptr noundef %44)
  %46 = getelementptr inbounds nuw { i64, ptr }, ptr %10, i32 0, i32 0
  %47 = extractvalue { i64, ptr } %45, 0
  store i64 %47, ptr %46, align 8
  %48 = getelementptr inbounds nuw { i64, ptr }, ptr %10, i32 0, i32 1
  %49 = extractvalue { i64, ptr } %45, 1
  store ptr %49, ptr %48, align 8
  %50 = call { i64, ptr } @jv_null()
  %51 = getelementptr inbounds nuw { i64, ptr }, ptr %11, i32 0, i32 0
  %52 = extractvalue { i64, ptr } %50, 0
  store i64 %52, ptr %51, align 8
  %53 = getelementptr inbounds nuw { i64, ptr }, ptr %11, i32 0, i32 1
  %54 = extractvalue { i64, ptr } %50, 1
  store ptr %54, ptr %53, align 8
  %55 = getelementptr inbounds nuw { i64, ptr }, ptr %8, i32 0, i32 0
  %56 = load i64, ptr %55, align 8
  %57 = getelementptr inbounds nuw { i64, ptr }, ptr %8, i32 0, i32 1
  %58 = load ptr, ptr %57, align 8
  %59 = getelementptr inbounds nuw { i64, ptr }, ptr %9, i32 0, i32 0
  %60 = load i64, ptr %59, align 8
  %61 = getelementptr inbounds nuw { i64, ptr }, ptr %9, i32 0, i32 1
  %62 = load ptr, ptr %61, align 8
  %63 = call { i64, ptr } @find_lib(ptr noundef %28, i64 %56, ptr %58, i64 %60, ptr %62, ptr noundef @.str, ptr noundef byval(%struct.jv) align 8 %10, ptr noundef byval(%struct.jv) align 8 %11)
  %64 = getelementptr inbounds nuw { i64, ptr }, ptr %7, i32 0, i32 0
  %65 = extractvalue { i64, ptr } %63, 0
  store i64 %65, ptr %64, align 8
  %66 = getelementptr inbounds nuw { i64, ptr }, ptr %7, i32 0, i32 1
  %67 = extractvalue { i64, ptr } %63, 1
  store ptr %67, ptr %66, align 8
  %68 = getelementptr inbounds nuw { i64, ptr }, ptr %7, i32 0, i32 0
  %69 = load i64, ptr %68, align 8
  %70 = getelementptr inbounds nuw { i64, ptr }, ptr %7, i32 0, i32 1
  %71 = load ptr, ptr %70, align 8
  %72 = call i32 @jv_is_valid(i64 %69, ptr %71)
  %73 = icmp ne i32 %72, 0
  br i1 %73, label %75, label %74

74:                                               ; preds = %3
  call void @llvm.memcpy.p0.p0.i64(ptr align 8 %4, ptr align 8 %7, i64 16, i1 false), !tbaa.struct !9
  store i32 1, ptr %12, align 4
  br label %224

75:                                               ; preds = %3
  %76 = call { i64, ptr } @jv_null()
  %77 = getelementptr inbounds nuw { i64, ptr }, ptr %4, i32 0, i32 0
  %78 = extractvalue { i64, ptr } %76, 0
  store i64 %78, ptr %77, align 8
  %79 = getelementptr inbounds nuw { i64, ptr }, ptr %4, i32 0, i32 1
  %80 = extractvalue { i64, ptr } %76, 1
  store ptr %80, ptr %79, align 8
  call void @llvm.lifetime.start.p0(i64 16, ptr %13) #8
  %81 = getelementptr inbounds nuw { i64, ptr }, ptr %7, i32 0, i32 0
  %82 = load i64, ptr %81, align 8
  %83 = getelementptr inbounds nuw { i64, ptr }, ptr %7, i32 0, i32 1
  %84 = load ptr, ptr %83, align 8
  %85 = call ptr @jv_string_value(i64 %82, ptr %84)
  %86 = call { i64, ptr } @jv_load_file(ptr noundef %85, i32 noundef 1)
  %87 = getelementptr inbounds nuw { i64, ptr }, ptr %13, i32 0, i32 0
  %88 = extractvalue { i64, ptr } %86, 0
  store i64 %88, ptr %87, align 8
  %89 = getelementptr inbounds nuw { i64, ptr }, ptr %13, i32 0, i32 1
  %90 = extractvalue { i64, ptr } %86, 1
  store ptr %90, ptr %89, align 8
  %91 = getelementptr inbounds nuw { i64, ptr }, ptr %13, i32 0, i32 0
  %92 = load i64, ptr %91, align 8
  %93 = getelementptr inbounds nuw { i64, ptr }, ptr %13, i32 0, i32 1
  %94 = load ptr, ptr %93, align 8
  %95 = call i32 @jv_is_valid(i64 %92, ptr %94)
  %96 = icmp ne i32 %95, 0
  br i1 %96, label %97, label %215

97:                                               ; preds = %75
  call void @llvm.lifetime.start.p0(i64 16, ptr %14) #8
  call void @llvm.lifetime.start.p0(i64 8, ptr %15) #8
  %98 = load ptr, ptr %6, align 8, !tbaa !4
  %99 = getelementptr inbounds nuw { i64, ptr }, ptr %7, i32 0, i32 0
  %100 = load i64, ptr %99, align 8
  %101 = getelementptr inbounds nuw { i64, ptr }, ptr %7, i32 0, i32 1
  %102 = load ptr, ptr %101, align 8
  %103 = call ptr @jv_string_value(i64 %100, ptr %102)
  %104 = getelementptr inbounds nuw { i64, ptr }, ptr %13, i32 0, i32 0
  %105 = load i64, ptr %104, align 8
  %106 = getelementptr inbounds nuw { i64, ptr }, ptr %13, i32 0, i32 1
  %107 = load ptr, ptr %106, align 8
  %108 = call ptr @jv_string_value(i64 %105, ptr %107)
  %109 = getelementptr inbounds nuw { i64, ptr }, ptr %13, i32 0, i32 0
  %110 = load i64, ptr %109, align 8
  %111 = getelementptr inbounds nuw { i64, ptr }, ptr %13, i32 0, i32 1
  %112 = load ptr, ptr %111, align 8
  %113 = call { i64, ptr } @jv_copy(i64 %110, ptr %112)
  %114 = getelementptr inbounds nuw { i64, ptr }, ptr %16, i32 0, i32 0
  %115 = extractvalue { i64, ptr } %113, 0
  store i64 %115, ptr %114, align 8
  %116 = getelementptr inbounds nuw { i64, ptr }, ptr %16, i32 0, i32 1
  %117 = extractvalue { i64, ptr } %113, 1
  store ptr %117, ptr %116, align 8
  %118 = getelementptr inbounds nuw { i64, ptr }, ptr %16, i32 0, i32 0
  %119 = load i64, ptr %118, align 8
  %120 = getelementptr inbounds nuw { i64, ptr }, ptr %16, i32 0, i32 1
  %121 = load ptr, ptr %120, align 8
  %122 = call i32 @jv_string_length_bytes(i64 %119, ptr %121)
  %123 = call ptr @locfile_init(ptr noundef %98, ptr noundef %103, ptr noundef %108, i32 noundef %122)
  store ptr %123, ptr %15, align 8, !tbaa !15
  call void @llvm.lifetime.start.p0(i64 4, ptr %17) #8
  %124 = load ptr, ptr %15, align 8, !tbaa !15
  %125 = call i32 @jq_parse_library(ptr noundef %124, ptr noundef %14)
  store i32 %125, ptr %17, align 4, !tbaa !13
  %126 = load i32, ptr %17, align 4, !tbaa !13
  %127 = icmp eq i32 %126, 0
  br i1 %127, label %128, label %209

128:                                              ; preds = %97
  call void @llvm.lifetime.start.p0(i64 16, ptr %18) #8
  %129 = getelementptr inbounds nuw { ptr, ptr }, ptr %14, i32 0, i32 0
  %130 = load ptr, ptr %129, align 8
  %131 = getelementptr inbounds nuw { ptr, ptr }, ptr %14, i32 0, i32 1
  %132 = load ptr, ptr %131, align 8
  %133 = call { i64, ptr } @block_module_meta(ptr %130, ptr %132)
  %134 = getelementptr inbounds nuw { i64, ptr }, ptr %18, i32 0, i32 0
  %135 = extractvalue { i64, ptr } %133, 0
  store i64 %135, ptr %134, align 8
  %136 = getelementptr inbounds nuw { i64, ptr }, ptr %18, i32 0, i32 1
  %137 = extractvalue { i64, ptr } %133, 1
  store ptr %137, ptr %136, align 8
  call void @llvm.memcpy.p0.p0.i64(ptr align 8 %4, ptr align 8 %18, i64 16, i1 false), !tbaa.struct !9
  call void @llvm.lifetime.end.p0(i64 16, ptr %18) #8
  %138 = getelementptr inbounds nuw { i64, ptr }, ptr %4, i32 0, i32 0
  %139 = load i64, ptr %138, align 8
  %140 = getelementptr inbounds nuw { i64, ptr }, ptr %4, i32 0, i32 1
  %141 = load ptr, ptr %140, align 8
  %142 = call i32 @jv_get_kind(i64 %139, ptr %141)
  %143 = icmp eq i32 %142, 1
  br i1 %143, label %144, label %150

144:                                              ; preds = %128
  call void @llvm.lifetime.start.p0(i64 16, ptr %19) #8
  %145 = call { i64, ptr } @jv_object()
  %146 = getelementptr inbounds nuw { i64, ptr }, ptr %19, i32 0, i32 0
  %147 = extractvalue { i64, ptr } %145, 0
  store i64 %147, ptr %146, align 8
  %148 = getelementptr inbounds nuw { i64, ptr }, ptr %19, i32 0, i32 1
  %149 = extractvalue { i64, ptr } %145, 1
  store ptr %149, ptr %148, align 8
  call void @llvm.memcpy.p0.p0.i64(ptr align 8 %4, ptr align 8 %19, i64 16, i1 false), !tbaa.struct !9
  call void @llvm.lifetime.end.p0(i64 16, ptr %19) #8
  br label %150

150:                                              ; preds = %144, %128
  call void @llvm.lifetime.start.p0(i64 16, ptr %20) #8
  %151 = call { i64, ptr } @jv_string(ptr noundef @.str.1)
  %152 = getelementptr inbounds nuw { i64, ptr }, ptr %21, i32 0, i32 0
  %153 = extractvalue { i64, ptr } %151, 0
  store i64 %153, ptr %152, align 8
  %154 = getelementptr inbounds nuw { i64, ptr }, ptr %21, i32 0, i32 1
  %155 = extractvalue { i64, ptr } %151, 1
  store ptr %155, ptr %154, align 8
  %156 = call { i64, ptr } @block_take_imports(ptr noundef %14)
  %157 = getelementptr inbounds nuw { i64, ptr }, ptr %22, i32 0, i32 0
  %158 = extractvalue { i64, ptr } %156, 0
  store i64 %158, ptr %157, align 8
  %159 = getelementptr inbounds nuw { i64, ptr }, ptr %22, i32 0, i32 1
  %160 = extractvalue { i64, ptr } %156, 1
  store ptr %160, ptr %159, align 8
  %161 = getelementptr inbounds nuw { i64, ptr }, ptr %4, i32 0, i32 0
  %162 = load i64, ptr %161, align 8
  %163 = getelementptr inbounds nuw { i64, ptr }, ptr %4, i32 0, i32 1
  %164 = load ptr, ptr %163, align 8
  %165 = getelementptr inbounds nuw { i64, ptr }, ptr %21, i32 0, i32 0
  %166 = load i64, ptr %165, align 8
  %167 = getelementptr inbounds nuw { i64, ptr }, ptr %21, i32 0, i32 1
  %168 = load ptr, ptr %167, align 8
  %169 = getelementptr inbounds nuw { i64, ptr }, ptr %22, i32 0, i32 0
  %170 = load i64, ptr %169, align 8
  %171 = getelementptr inbounds nuw { i64, ptr }, ptr %22, i32 0, i32 1
  %172 = load ptr, ptr %171, align 8
  %173 = call { i64, ptr } @jv_object_set(i64 %162, ptr %164, i64 %166, ptr %168, i64 %170, ptr %172)
  %174 = getelementptr inbounds nuw { i64, ptr }, ptr %20, i32 0, i32 0
  %175 = extractvalue { i64, ptr } %173, 0
  store i64 %175, ptr %174, align 8
  %176 = getelementptr inbounds nuw { i64, ptr }, ptr %20, i32 0, i32 1
  %177 = extractvalue { i64, ptr } %173, 1
  store ptr %177, ptr %176, align 8
  call void @llvm.memcpy.p0.p0.i64(ptr align 8 %4, ptr align 8 %20, i64 16, i1 false), !tbaa.struct !9
  call void @llvm.lifetime.end.p0(i64 16, ptr %20) #8
  call void @llvm.lifetime.start.p0(i64 16, ptr %23) #8
  %178 = call { i64, ptr } @jv_string(ptr noundef @.str.2)
  %179 = getelementptr inbounds nuw { i64, ptr }, ptr %24, i32 0, i32 0
  %180 = extractvalue { i64, ptr } %178, 0
  store i64 %180, ptr %179, align 8
  %181 = getelementptr inbounds nuw { i64, ptr }, ptr %24, i32 0, i32 1
  %182 = extractvalue { i64, ptr } %178, 1
  store ptr %182, ptr %181, align 8
  %183 = getelementptr inbounds nuw { ptr, ptr }, ptr %14, i32 0, i32 0
  %184 = load ptr, ptr %183, align 8
  %185 = getelementptr inbounds nuw { ptr, ptr }, ptr %14, i32 0, i32 1
  %186 = load ptr, ptr %185, align 8
  %187 = call { i64, ptr } @block_list_funcs(ptr %184, ptr %186, i32 noundef 0)
  %188 = getelementptr inbounds nuw { i64, ptr }, ptr %25, i32 0, i32 0
  %189 = extractvalue { i64, ptr } %187, 0
  store i64 %189, ptr %188, align 8
  %190 = getelementptr inbounds nuw { i64, ptr }, ptr %25, i32 0, i32 1
  %191 = extractvalue { i64, ptr } %187, 1
  store ptr %191, ptr %190, align 8
  %192 = getelementptr inbounds nuw { i64, ptr }, ptr %4, i32 0, i32 0
  %193 = load i64, ptr %192, align 8
  %194 = getelementptr inbounds nuw { i64, ptr }, ptr %4, i32 0, i32 1
  %195 = load ptr, ptr %194, align 8
  %196 = getelementptr inbounds nuw { i64, ptr }, ptr %24, i32 0, i32 0
  %197 = load i64, ptr %196, align 8
  %198 = getelementptr inbounds nuw { i64, ptr }, ptr %24, i32 0, i32 1
  %199 = load ptr, ptr %198, align 8
  %200 = getelementptr inbounds nuw { i64, ptr }, ptr %25, i32 0, i32 0
  %201 = load i64, ptr %200, align 8
  %202 = getelementptr inbounds nuw { i64, ptr }, ptr %25, i32 0, i32 1
  %203 = load ptr, ptr %202, align 8
  %204 = call { i64, ptr } @jv_object_set(i64 %193, ptr %195, i64 %197, ptr %199, i64 %201, ptr %203)
  %205 = getelementptr inbounds nuw { i64, ptr }, ptr %23, i32 0, i32 0
  %206 = extractvalue { i64, ptr } %204, 0
  store i64 %206, ptr %205, align 8
  %207 = getelementptr inbounds nuw { i64, ptr }, ptr %23, i32 0, i32 1
  %208 = extractvalue { i64, ptr } %204, 1
  store ptr %208, ptr %207, align 8
  call void @llvm.memcpy.p0.p0.i64(ptr align 8 %4, ptr align 8 %23, i64 16, i1 false), !tbaa.struct !9
  call void @llvm.lifetime.end.p0(i64 16, ptr %23) #8
  br label %209

209:                                              ; preds = %150, %97
  %210 = load ptr, ptr %15, align 8, !tbaa !15
  call void @locfile_free(ptr noundef %210)
  %211 = getelementptr inbounds nuw { ptr, ptr }, ptr %14, i32 0, i32 0
  %212 = load ptr, ptr %211, align 8
  %213 = getelementptr inbounds nuw { ptr, ptr }, ptr %14, i32 0, i32 1
  %214 = load ptr, ptr %213, align 8
  call void @block_free(ptr %212, ptr %214)
  call void @llvm.lifetime.end.p0(i64 4, ptr %17) #8
  call void @llvm.lifetime.end.p0(i64 8, ptr %15) #8
  call void @llvm.lifetime.end.p0(i64 16, ptr %14) #8
  br label %215

215:                                              ; preds = %209, %75
  %216 = getelementptr inbounds nuw { i64, ptr }, ptr %7, i32 0, i32 0
  %217 = load i64, ptr %216, align 8
  %218 = getelementptr inbounds nuw { i64, ptr }, ptr %7, i32 0, i32 1
  %219 = load ptr, ptr %218, align 8
  call void @jv_free(i64 %217, ptr %219)
  %220 = getelementptr inbounds nuw { i64, ptr }, ptr %13, i32 0, i32 0
  %221 = load i64, ptr %220, align 8
  %222 = getelementptr inbounds nuw { i64, ptr }, ptr %13, i32 0, i32 1
  %223 = load ptr, ptr %222, align 8
  call void @jv_free(i64 %221, ptr %223)
  store i32 1, ptr %12, align 4
  call void @llvm.lifetime.end.p0(i64 16, ptr %13) #8
  br label %224

224:                                              ; preds = %215, %74
  call void @llvm.lifetime.end.p0(i64 16, ptr %7) #8
  %225 = load { i64, ptr }, ptr %4, align 8
  ret { i64, ptr } %225
}