; Function Attrs: nounwind uwtable
define dso_local { i64, ptr } @load_module_meta(ptr noundef %0, i64 %1, ptr %2) local_unnamed_addr #0 {
  %4 = alloca %struct.block, align 8
  %5 = tail call fastcc { i64, ptr } @validate_relpath(i64 %1, ptr %2)
  %6 = extractvalue { i64, ptr } %5, 0
  %7 = extractvalue { i64, ptr } %5, 1
  %8 = tail call { i64, ptr } @jq_get_lib_dirs(ptr noundef %0) #11
  %9 = extractvalue { i64, ptr } %8, 0
  %10 = extractvalue { i64, ptr } %8, 1
  %11 = tail call { i64, ptr } @jq_get_jq_origin(ptr noundef %0) #11
  %12 = extractvalue { i64, ptr } %11, 0
  %13 = extractvalue { i64, ptr } %11, 1
  %14 = tail call { i64, ptr } @jv_null() #11
  %15 = extractvalue { i64, ptr } %14, 0
  %16 = extractvalue { i64, ptr } %14, 1
  %17 = tail call fastcc { i64, ptr } @find_lib(i64 %6, ptr %7, i64 %9, ptr %10, ptr noundef nonnull @.str, i64 %12, ptr %13, i64 %15, ptr %16)
  %18 = extractvalue { i64, ptr } %17, 0
  %19 = extractvalue { i64, ptr } %17, 1
  %20 = tail call i32 @jv_get_kind(i64 %18, ptr %19) #11
  %.not54 = icmp eq i32 %20, 0
  br i1 %.not54, label %75, label %21

21:                                               ; preds = %3
  %22 = tail call { i64, ptr } @jv_null() #11
  %23 = tail call ptr @jv_string_value(i64 %18, ptr %19) #11
  %24 = tail call { i64, ptr } @jv_load_file(ptr noundef %23, i32 noundef 1) #11
  %25 = extractvalue { i64, ptr } %24, 0
  %26 = extractvalue { i64, ptr } %24, 1
  %27 = tail call i32 @jv_get_kind(i64 %25, ptr %26) #11
  %.not = icmp eq i32 %27, 0
  br i1 %.not, label %74, label %28

28:                                               ; preds = %21
  call void @llvm.lifetime.start.p0(i64 16, ptr nonnull %4) #11
  %29 = tail call ptr @jv_string_value(i64 %18, ptr %19) #11
  %30 = tail call ptr @jv_string_value(i64 %25, ptr %26) #11
  %31 = tail call { i64, ptr } @jv_copy(i64 %25, ptr %26) #11
  %32 = extractvalue { i64, ptr } %31, 0
  %33 = extractvalue { i64, ptr } %31, 1
  %34 = tail call i32 @jv_string_length_bytes(i64 %32, ptr %33) #11
  %35 = tail call ptr @locfile_init(ptr noundef %0, ptr noundef %29, ptr noundef %30, i32 noundef %34) #11
  %36 = call i32 @jq_parse_library(ptr noundef %35, ptr noundef nonnull %4) #11
  %37 = icmp eq i32 %36, 0
  br i1 %37, label %38, label %70

38:                                               ; preds = %28
  %39 = load ptr, ptr %4, align 8
  %40 = getelementptr inbounds nuw i8, ptr %4, i64 8
  %41 = load ptr, ptr %40, align 8
  %42 = call { i64, ptr } @block_module_meta(ptr %39, ptr %41) #11
  %43 = extractvalue { i64, ptr } %42, 0
  %44 = extractvalue { i64, ptr } %42, 1
  %45 = call i32 @jv_get_kind(i64 %43, ptr %44) #11
  %46 = icmp eq i32 %45, 1
  br i1 %46, label %47, label %51

47:                                               ; preds = %38
  %48 = call { i64, ptr } @jv_object() #11
  %49 = extractvalue { i64, ptr } %48, 0
  %50 = extractvalue { i64, ptr } %48, 1
  br label %51

51:                                               ; preds = %47, %38
  %.sroa.041.3 = phi i64 [ %49, %47 ], [ %43, %38 ]
  %.sroa.10.3 = phi ptr [ %50, %47 ], [ %44, %38 ]
  %52 = call { i64, ptr } @jv_string(ptr noundef nonnull @.str.1) #11
  %53 = extractvalue { i64, ptr } %52, 0
  %54 = extractvalue { i64, ptr } %52, 1
  %55 = call { i64, ptr } @block_take_imports(ptr noundef nonnull %4) #11
  %56 = extractvalue { i64, ptr } %55, 0
  %57 = extractvalue { i64, ptr } %55, 1
  %58 = call { i64, ptr } @jv_object_set(i64 %.sroa.041.3, ptr %.sroa.10.3, i64 %53, ptr %54, i64 %56, ptr %57) #11
  %59 = extractvalue { i64, ptr } %58, 0
  %60 = extractvalue { i64, ptr } %58, 1
  %61 = call { i64, ptr } @jv_string(ptr noundef nonnull @.str.2) #11
  %62 = extractvalue { i64, ptr } %61, 0
  %63 = extractvalue { i64, ptr } %61, 1
  %64 = load ptr, ptr %4, align 8
  %65 = load ptr, ptr %40, align 8
  %66 = call { i64, ptr } @block_list_funcs(ptr %64, ptr %65, i32 noundef 0) #11
  %67 = extractvalue { i64, ptr } %66, 0
  %68 = extractvalue { i64, ptr } %66, 1
  %69 = call { i64, ptr } @jv_object_set(i64 %59, ptr %60, i64 %62, ptr %63, i64 %67, ptr %68) #11
  br label %70

70:                                               ; preds = %51, %28
  %.merged48 = phi { i64, ptr } [ %69, %51 ], [ %22, %28 ]
  call void @locfile_free(ptr noundef %35) #11
  %71 = load ptr, ptr %4, align 8
  %72 = getelementptr inbounds nuw i8, ptr %4, i64 8
  %73 = load ptr, ptr %72, align 8
  call void @block_free(ptr %71, ptr %73) #11
  call void @llvm.lifetime.end.p0(i64 16, ptr nonnull %4) #11
  br label %74

74:                                               ; preds = %70, %21
  %.merged = phi { i64, ptr } [ %.merged48, %70 ], [ %22, %21 ]
  call void @jv_free(i64 %18, ptr %19) #11
  call void @jv_free(i64 %25, ptr %26) #11
  br label %75

75:                                               ; preds = %3, %74
  %.fca.1.insert.merged = phi { i64, ptr } [ %.merged, %74 ], [ %17, %3 ]
  ret { i64, ptr } %.fca.1.insert.merged
}